target datalayout = "e-m:e-p270:32:32-p271:32:32-p272:64:64-i64:64-i128:128-f80:128-n8:16:32:64-S128"
target triple = "x86_64-pc-linux-gnu"

%struct.AVFilterContext = type { ptr, ptr, ptr, ptr, ptr, i32, ptr, ptr, i32, ptr, ptr, i32, i32, ptr, ptr, ptr, ptr, i32, ptr, i32, i32 }
%struct.ColorCorrectContext = type { ptr, float, float, float, float, float, i32, i32, float, float, i32, i32, [4 x i32], [4 x i32], ptr, ptr, ptr, ptr, ptr }
%struct.AVChannelLayout = type { i32, i32, %union.anon.1, ptr }
%union.anon.1 = type { i64 }
%struct.AVRational = type { i32, i32 }
%struct.AVFrame = type { [8 x ptr], [8 x i32], ptr, i32, i32, i32, i32, i32, %struct.AVRational, i64, i64, %struct.AVRational, i32, ptr, i32, i32, [8 x ptr], ptr, i32, ptr, i32, i32, i32, i32, i32, i32, i32, i64, ptr, i32, ptr, ptr, i64, i64, i64, i64, ptr, %struct.AVChannelLayout, i64 }

; Function Attrs: nounwind uwtable
define internal i32 @minmax_slice16(ptr noundef %0, ptr noundef %1, i32 noundef %2, i32 noundef %3) #2 {
  %5 = alloca ptr, align 8
  %6 = alloca ptr, align 8
  %7 = alloca i32, align 4
  %8 = alloca i32, align 4
  %9 = alloca ptr, align 8
  %10 = alloca ptr, align 8
  %11 = alloca float, align 4
  %12 = alloca i32, align 4
  %13 = alloca i32, align 4
  %14 = alloca i32, align 4
  %15 = alloca i32, align 4
  %16 = alloca i64, align 8
  %17 = alloca i64, align 8
  %18 = alloca ptr, align 8
  %19 = alloca ptr, align 8
  %20 = alloca i32, align 4
  %21 = alloca i32, align 4
  %22 = alloca i32, align 4
  %23 = alloca i32, align 4
  %24 = alloca i32, align 4
  %25 = alloca i32, align 4
  %26 = alloca i32, align 4
  store ptr %0, ptr %5, align 8, !tbaa !4
  store ptr %1, ptr %6, align 8, !tbaa !71
  store i32 %2, ptr %7, align 4, !tbaa !41
  store i32 %3, ptr %8, align 4, !tbaa !41
  call void @llvm.lifetime.start.p0(i64 8, ptr %9) #9
  %27 = load ptr, ptr %5, align 8, !tbaa !4
  %28 = getelementptr inbounds nuw %struct.AVFilterContext, ptr %27, i32 0, i32 9
  %29 = load ptr, ptr %28, align 8, !tbaa !9
  store ptr %29, ptr %9, align 8, !tbaa !22
  call void @llvm.lifetime.start.p0(i64 8, ptr %10) #9
  %30 = load ptr, ptr %6, align 8, !tbaa !71
  store ptr %30, ptr %10, align 8, !tbaa !26
  call void @llvm.lifetime.start.p0(i64 4, ptr %11) #9
  %31 = load ptr, ptr %9, align 8, !tbaa !22
  %32 = getelementptr inbounds nuw %struct.ColorCorrectContext, ptr %31, i32 0, i32 9
  %33 = load float, ptr %32, align 8, !tbaa !60
  store float %33, ptr %11, align 4, !tbaa !42
  call void @llvm.lifetime.start.p0(i64 4, ptr %12) #9
  %34 = load ptr, ptr %9, align 8, !tbaa !22
  %35 = getelementptr inbounds nuw %struct.ColorCorrectContext, ptr %34, i32 0, i32 13
  %36 = getelementptr inbounds [4 x i32], ptr %35, i64 0, i64 1
  %37 = load i32, ptr %36, align 4, !tbaa !41
  store i32 %37, ptr %12, align 4, !tbaa !41
  call void @llvm.lifetime.start.p0(i64 4, ptr %13) #9
  %38 = load ptr, ptr %9, align 8, !tbaa !22
  %39 = getelementptr inbounds nuw %struct.ColorCorrectContext, ptr %38, i32 0, i32 12
  %40 = getelementptr inbounds [4 x i32], ptr %39, i64 0, i64 1
  %41 = load i32, ptr %40, align 4, !tbaa !41
  store i32 %41, ptr %13, align 4, !tbaa !41
  call void @llvm.lifetime.start.p0(i64 4, ptr %14) #9
  %42 = load i32, ptr %13, align 4, !tbaa !41
  %43 = load i32, ptr %7, align 4, !tbaa !41
  %44 = mul nsw i32 %42, %43
  %45 = load i32, ptr %8, align 4, !tbaa !41
  %46 = sdiv i32 %44, %45
  store i32 %46, ptr %14, align 4, !tbaa !41
  call void @llvm.lifetime.start.p0(i64 4, ptr %15) #9
  %47 = load i32, ptr %13, align 4, !tbaa !41
  %48 = load i32, ptr %7, align 4, !tbaa !41
  %49 = add nsw i32 %48, 1
  %50 = mul nsw i32 %47, %49
  %51 = load i32, ptr %8, align 4, !tbaa !41
  %52 = sdiv i32 %50, %51
  store i32 %52, ptr %15, align 4, !tbaa !41
  call void @llvm.lifetime.start.p0(i64 8, ptr %16) #9
  %53 = load ptr, ptr %10, align 8, !tbaa !26
  %54 = getelementptr inbounds nuw %struct.AVFrame, ptr %53, i32 0, i32 1
  %55 = getelementptr inbounds [8 x i32], ptr %54, i64 0, i64 1
  %56 = load i32, ptr %55, align 4, !tbaa !41
  %57 = sdiv i32 %56, 2
  %58 = sext i32 %57 to i64
  store i64 %58, ptr %16, align 8, !tbaa !72
  call void @llvm.lifetime.start.p0(i64 8, ptr %17) #9
  %59 = load ptr, ptr %10, align 8, !tbaa !26
  %60 = getelementptr inbounds nuw %struct.AVFrame, ptr %59, i32 0, i32 1
  %61 = getelementptr inbounds [8 x i32], ptr %60, i64 0, i64 2
  %62 = load i32, ptr %61, align 8, !tbaa !41
  %63 = sdiv i32 %62, 2
  %64 = sext i32 %63 to i64
  store i64 %64, ptr %17, align 8, !tbaa !72
  call void @llvm.lifetime.start.p0(i64 8, ptr %18) #9
  %65 = load ptr, ptr %10, align 8, !tbaa !26
  %66 = getelementptr inbounds nuw %struct.AVFrame, ptr %65, i32 0, i32 0
  %67 = getelementptr inbounds [8 x ptr], ptr %66, i64 0, i64 1
  %68 = load ptr, ptr %67, align 8, !tbaa !73
  %69 = load i32, ptr %14, align 4, !tbaa !41
  %70 = sext i32 %69 to i64
  %71 = load i64, ptr %16, align 8, !tbaa !72
  %72 = mul nsw i64 %70, %71
  %73 = getelementptr inbounds i16, ptr %68, i64 %72
  store ptr %73, ptr %18, align 8, !tbaa !78
  call void @llvm.lifetime.start.p0(i64 8, ptr %19) #9
  %74 = load ptr, ptr %10, align 8, !tbaa !26
  %75 = getelementptr inbounds nuw %struct.AVFrame, ptr %74, i32 0, i32 0
  %76 = getelementptr inbounds [8 x ptr], ptr %75, i64 0, i64 2
  %77 = load ptr, ptr %76, align 8, !tbaa !73
  %78 = load i32, ptr %14, align 4, !tbaa !41
  %79 = sext i32 %78 to i64
  %80 = load i64, ptr %17, align 8, !tbaa !72
  %81 = mul nsw i64 %79, %80
  %82 = getelementptr inbounds i16, ptr %77, i64 %81
  store ptr %82, ptr %19, align 8, !tbaa !78
  call void @llvm.lifetime.start.p0(i64 4, ptr %20) #9
  store i32 2147483647, ptr %20, align 4, !tbaa !41
  call void @llvm.lifetime.start.p0(i64 4, ptr %21) #9
  store i32 2147483647, ptr %21, align 4, !tbaa !41
  call void @llvm.lifetime.start.p0(i64 4, ptr %22) #9
  store i32 -2147483648, ptr %22, align 4, !tbaa !41
  call void @llvm.lifetime.start.p0(i64 4, ptr %23) #9
  store i32 -2147483648, ptr %23, align 4, !tbaa !41
  call void @llvm.lifetime.start.p0(i64 4, ptr %24) #9
  %83 = load i32, ptr %14, align 4, !tbaa !41
  store i32 %83, ptr %24, align 4, !tbaa !41
  br label %84

84:                                               ; preds = %182, %4
  %85 = load i32, ptr %24, align 4, !tbaa !41
  %86 = load i32, ptr %15, align 4, !tbaa !41
  %87 = icmp slt i32 %85, %86
  br i1 %87, label %89, label %88

88:                                               ; preds = %84
  store i32 2, ptr %25, align 4
  call void @llvm.lifetime.end.p0(i64 4, ptr %24) #9
  br label %185

89:                                               ; preds = %84
  call void @llvm.lifetime.start.p0(i64 4, ptr %26) #9
  store i32 0, ptr %26, align 4, !tbaa !41
  br label %90

90:                                               ; preds = %172, %89
  %91 = load i32, ptr %26, align 4, !tbaa !41
  %92 = load i32, ptr %12, align 4, !tbaa !41
  %93 = icmp slt i32 %91, %92
  br i1 %93, label %95, label %94

94:                                               ; preds = %90
  store i32 5, ptr %25, align 4
  call void @llvm.lifetime.end.p0(i64 4, ptr %26) #9
  br label %175

95:                                               ; preds = %90
  %96 = load i32, ptr %20, align 4, !tbaa !41
  %97 = load ptr, ptr %18, align 8, !tbaa !78
  %98 = load i32, ptr %26, align 4, !tbaa !41
  %99 = sext i32 %98 to i64
  %100 = getelementptr inbounds i16, ptr %97, i64 %99
  %101 = load i16, ptr %100, align 2, !tbaa !80
  %102 = zext i16 %101 to i32
  %103 = icmp sgt i32 %96, %102
  br i1 %103, label %104, label %111

104:                                              ; preds = %95
  %105 = load ptr, ptr %18, align 8, !tbaa !78
  %106 = load i32, ptr %26, align 4, !tbaa !41
  %107 = sext i32 %106 to i64
  %108 = getelementptr inbounds i16, ptr %105, i64 %107
  %109 = load i16, ptr %108, align 2, !tbaa !80
  %110 = zext i16 %109 to i32
  br label %113

111:                                              ; preds = %95
  %112 = load i32, ptr %20, align 4, !tbaa !41
  br label %113

113:                                              ; preds = %111, %104
  %114 = phi i32 [ %110, %104 ], [ %112, %111 ]
  store i32 %114, ptr %20, align 4, !tbaa !41
  %115 = load i32, ptr %21, align 4, !tbaa !41
  %116 = load ptr, ptr %19, align 8, !tbaa !78
  %117 = load i32, ptr %26, align 4, !tbaa !41
  %118 = sext i32 %117 to i64
  %119 = getelementptr inbounds i16, ptr %116, i64 %118
  %120 = load i16, ptr %119, align 2, !tbaa !80
  %121 = zext i16 %120 to i32
  %122 = icmp sgt i32 %115, %121
  br i1 %122, label %123, label %130

123:                                              ; preds = %113
  %124 = load ptr, ptr %19, align 8, !tbaa !78
  %125 = load i32, ptr %26, align 4, !tbaa !41
  %126 = sext i32 %125 to i64
  %127 = getelementptr inbounds i16, ptr %124, i64 %126
  %128 = load i16, ptr %127, align 2, !tbaa !80
  %129 = zext i16 %128 to i32
  br label %132

130:                                              ; preds = %113
  %131 = load i32, ptr %21, align 4, !tbaa !41
  br label %132

132:                                              ; preds = %130, %123
  %133 = phi i32 [ %129, %123 ], [ %131, %130 ]
  store i32 %133, ptr %21, align 4, !tbaa !41
  %134 = load i32, ptr %22, align 4, !tbaa !41
  %135 = load ptr, ptr %18, align 8, !tbaa !78
  %136 = load i32, ptr %26, align 4, !tbaa !41
  %137 = sext i32 %136 to i64
  %138 = getelementptr inbounds i16, ptr %135, i64 %137
  %139 = load i16, ptr %138, align 2, !tbaa !80
  %140 = zext i16 %139 to i32
  %141 = icmp sgt i32 %134, %140
  br i1 %141, label %142, label %144

142:                                              ; preds = %132
  %143 = load i32, ptr %22, align 4, !tbaa !41
  br label %151

144:                                              ; preds = %132
  %145 = load ptr, ptr %18, align 8, !tbaa !78
  %146 = load i32, ptr %26, align 4, !tbaa !41
  %147 = sext i32 %146 to i64
  %148 = getelementptr inbounds i16, ptr %145, i64 %147
  %149 = load i16, ptr %148, align 2, !tbaa !80
  %150 = zext i16 %149 to i32
  br label %151

151:                                              ; preds = %144, %142
  %152 = phi i32 [ %143, %142 ], [ %150, %144 ]
  store i32 %152, ptr %22, align 4, !tbaa !41
  %153 = load i32, ptr %23, align 4, !tbaa !41
  %154 = load ptr, ptr %19, align 8, !tbaa !78
  %155 = load i32, ptr %26, align 4, !tbaa !41
  %156 = sext i32 %155 to i64
  %157 = getelementptr inbounds i16, ptr %154, i64 %156
  %158 = load i16, ptr %157, align 2, !tbaa !80
  %159 = zext i16 %158 to i32
  %160 = icmp sgt i32 %153, %159
  br i1 %160, label %161, label %163

161:                                              ; preds = %151
  %162 = load i32, ptr %23, align 4, !tbaa !41
  br label %170

163:                                              ; preds = %151
  %164 = load ptr, ptr %19, align 8, !tbaa !78
  %165 = load i32, ptr %26, align 4, !tbaa !41
  %166 = sext i32 %165 to i64
  %167 = getelementptr inbounds i16, ptr %164, i64 %166
  %168 = load i16, ptr %167, align 2, !tbaa !80
  %169 = zext i16 %168 to i32
  br label %170

170:                                              ; preds = %163, %161
  %171 = phi i32 [ %162, %161 ], [ %169, %163 ]
  store i32 %171, ptr %23, align 4, !tbaa !41
  br label %172

172:                                              ; preds = %170
  %173 = load i32, ptr %26, align 4, !tbaa !41
  %174 = add nsw i32 %173, 1
  store i32 %174, ptr %26, align 4, !tbaa !41
  br label %90, !llvm.loop !90

175:                                              ; preds = %94
  %176 = load i64, ptr %16, align 8, !tbaa !72
  %177 = load ptr, ptr %18, align 8, !tbaa !78
  %178 = getelementptr inbounds i16, ptr %177, i64 %176
  store ptr %178, ptr %18, align 8, !tbaa !78
  %179 = load i64, ptr %17, align 8, !tbaa !72
  %180 = load ptr, ptr %19, align 8, !tbaa !78
  %181 = getelementptr inbounds i16, ptr %180, i64 %179
  store ptr %181, ptr %19, align 8, !tbaa !78
  br label %182

182:                                              ; preds = %175
  %183 = load i32, ptr %24, align 4, !tbaa !41
  %184 = add nsw i32 %183, 1
  store i32 %184, ptr %24, align 4, !tbaa !41
  br label %84, !llvm.loop !91

185:                                              ; preds = %88
  %186 = load float, ptr %11, align 4, !tbaa !42
  %187 = load i32, ptr %20, align 4, !tbaa !41
  %188 = sitofp i32 %187 to float
  %189 = call nsz float @llvm.fmuladd.f32(float %186, float %188, float -5.000000e-01)
  %190 = load ptr, ptr %9, align 8, !tbaa !22
  %191 = getelementptr inbounds nuw %struct.ColorCorrectContext, ptr %190, i32 0, i32 16
  %192 = load ptr, ptr %191, align 8, !tbaa !44
  %193 = load i32, ptr %7, align 4, !tbaa !41
  %194 = sext i32 %193 to i64
  %195 = getelementptr inbounds [4 x float], ptr %192, i64 %194
  %196 = getelementptr inbounds [4 x float], ptr %195, i64 0, i64 0
  store float %189, ptr %196, align 4, !tbaa !42
  %197 = load float, ptr %11, align 4, !tbaa !42
  %198 = load i32, ptr %21, align 4, !tbaa !41
  %199 = sitofp i32 %198 to float
  %200 = call nsz float @llvm.fmuladd.f32(float %197, float %199, float -5.000000e-01)
  %201 = load ptr, ptr %9, align 8, !tbaa !22
  %202 = getelementptr inbounds nuw %struct.ColorCorrectContext, ptr %201, i32 0, i32 16
  %203 = load ptr, ptr %202, align 8, !tbaa !44
  %204 = load i32, ptr %7, align 4, !tbaa !41
  %205 = sext i32 %204 to i64
  %206 = getelementptr inbounds [4 x float], ptr %203, i64 %205
  %207 = getelementptr inbounds [4 x float], ptr %206, i64 0, i64 1
  store float %200, ptr %207, align 4, !tbaa !42
  %208 = load float, ptr %11, align 4, !tbaa !42
  %209 = load i32, ptr %22, align 4, !tbaa !41
  %210 = sitofp i32 %209 to float
  %211 = call nsz float @llvm.fmuladd.f32(float %208, float %210, float -5.000000e-01)
  %212 = load ptr, ptr %9, align 8, !tbaa !22
  %213 = getelementptr inbounds nuw %struct.ColorCorrectContext, ptr %212, i32 0, i32 16
  %214 = load ptr, ptr %213, align 8, !tbaa !44
  %215 = load i32, ptr %7, align 4, !tbaa !41
  %216 = sext i32 %215 to i64
  %217 = getelementptr inbounds [4 x float], ptr %214, i64 %216
  %218 = getelementptr inbounds [4 x float], ptr %217, i64 0, i64 2
  store float %211, ptr %218, align 4, !tbaa !42
  %219 = load float, ptr %11, align 4, !tbaa !42
  %220 = load i32, ptr %23, align 4, !tbaa !41
  %221 = sitofp i32 %220 to float
  %222 = call nsz float @llvm.fmuladd.f32(float %219, float %221, float -5.000000e-01)
  %223 = load ptr, ptr %9, align 8, !tbaa !22
  %224 = getelementptr inbounds nuw %struct.ColorCorrectContext, ptr %223, i32 0, i32 16
  %225 = load ptr, ptr %224, align 8, !tbaa !44
  %226 = load i32, ptr %7, align 4, !tbaa !41
  %227 = sext i32 %226 to i64
  %228 = getelementptr inbounds [4 x float], ptr %225, i64 %227
  %229 = getelementptr inbounds [4 x float], ptr %228, i64 0, i64 3
  store float %222, ptr %229, align 4, !tbaa !42
  store i32 1, ptr %25, align 4
  call void @llvm.lifetime.end.p0(i64 4, ptr %23) #9
  call void @llvm.lifetime.end.p0(i64 4, ptr %22) #9
  call void @llvm.lifetime.end.p0(i64 4, ptr %21) #9
  call void @llvm.lifetime.end.p0(i64 4, ptr %20) #9
  call void @llvm.lifetime.end.p0(i64 8, ptr %19) #9
  call void @llvm.lifetime.end.p0(i64 8, ptr %18) #9
  call void @llvm.lifetime.end.p0(i64 8, ptr %17) #9
  call void @llvm.lifetime.end.p0(i64 8, ptr %16) #9
  call void @llvm.lifetime.end.p0(i64 4, ptr %15) #9
  call void @llvm.lifetime.end.p0(i64 4, ptr %14) #9
  call void @llvm.lifetime.end.p0(i64 4, ptr %13) #9
  call void @llvm.lifetime.end.p0(i64 4, ptr %12) #9
  call void @llvm.lifetime.end.p0(i64 4, ptr %11) #9
  call void @llvm.lifetime.end.p0(i64 8, ptr %10) #9
  call void @llvm.lifetime.end.p0(i64 8, ptr %9) #9
  ret i32 0
}