; Function Attrs: nofree norecurse nosync nounwind memory(readwrite, inaccessiblemem: none) uwtable
define internal noundef i32 @minmax_slice16(ptr noundef readonly captures(none) %0, ptr noundef readonly captures(none) %1, i32 noundef %2, i32 noundef %3) #4 {
  %5 = getelementptr inbounds nuw i8, ptr %0, i64 72
  %6 = load ptr, ptr %5, align 8, !tbaa !4
  %7 = getelementptr inbounds nuw i8, ptr %6, i64 40
  %8 = load float, ptr %7, align 8, !tbaa !53
  %9 = getelementptr inbounds nuw i8, ptr %6, i64 72
  %10 = load i32, ptr %9, align 4, !tbaa !35
  %11 = getelementptr inbounds nuw i8, ptr %6, i64 56
  %12 = load i32, ptr %11, align 4, !tbaa !35
  %13 = mul nsw i32 %12, %2
  %14 = sdiv i32 %13, %3
  %15 = add nsw i32 %2, 1
  %16 = mul nsw i32 %12, %15
  %17 = sdiv i32 %16, %3
  %18 = getelementptr inbounds nuw i8, ptr %1, i64 68
  %19 = load i32, ptr %18, align 4, !tbaa !35
  %20 = sdiv i32 %19, 2
  %21 = sext i32 %20 to i64
  %22 = getelementptr inbounds nuw i8, ptr %1, i64 72
  %23 = load i32, ptr %22, align 8, !tbaa !35
  %24 = sdiv i32 %23, 2
  %25 = sext i32 %24 to i64
  %26 = icmp slt i32 %14, %17
  %27 = icmp sgt i32 %10, 0
  %or.cond = select i1 %26, i1 %27, i1 false
  br i1 %or.cond, label %.preheader.us.preheader, label %._crit_edge98

.preheader.us.preheader:                          ; preds = %4
  %28 = getelementptr inbounds nuw i8, ptr %1, i64 8
  %29 = load ptr, ptr %28, align 8, !tbaa !65
  %30 = sext i32 %14 to i64
  %31 = mul nsw i64 %21, %30
  %32 = getelementptr inbounds i16, ptr %29, i64 %31
  %33 = getelementptr inbounds nuw i8, ptr %1, i64 16
  %34 = load ptr, ptr %33, align 8, !tbaa !65
  %35 = mul nsw i64 %25, %30
  %36 = getelementptr inbounds i16, ptr %34, i64 %35
  %wide.trip.count = zext nneg i32 %10 to i64
  br label %.preheader.us

.preheader.us:                                    ; preds = %.preheader.us.preheader, %._crit_edge.us
  %.06997.us = phi i32 [ %49, %._crit_edge.us ], [ %14, %.preheader.us.preheader ]
  %.07096.us = phi i32 [ %46, %._crit_edge.us ], [ -2147483648, %.preheader.us.preheader ]
  %.07195.us = phi i32 [ %45, %._crit_edge.us ], [ -2147483648, %.preheader.us.preheader ]
  %.07394.us = phi i32 [ %44, %._crit_edge.us ], [ 2147483647, %.preheader.us.preheader ]
  %.07593.us = phi i32 [ %..176.us, %._crit_edge.us ], [ 2147483647, %.preheader.us.preheader ]
  %.07792.us = phi ptr [ %48, %._crit_edge.us ], [ %36, %.preheader.us.preheader ]
  %.07891.us = phi ptr [ %47, %._crit_edge.us ], [ %32, %.preheader.us.preheader ]
  br label %37

37:                                               ; preds = %.preheader.us, %37
  %indvars.iv = phi i64 [ 0, %.preheader.us ], [ %indvars.iv.next, %37 ]
  %.186.us = phi i32 [ %.07096.us, %.preheader.us ], [ %46, %37 ]
  %.17285.us = phi i32 [ %.07195.us, %.preheader.us ], [ %45, %37 ]
  %.17484.us = phi i32 [ %.07394.us, %.preheader.us ], [ %44, %37 ]
  %.17683.us = phi i32 [ %.07593.us, %.preheader.us ], [ %..176.us, %37 ]
  %38 = getelementptr inbounds nuw i16, ptr %.07891.us, i64 %indvars.iv
  %39 = load i16, ptr %38, align 2, !tbaa !69
  %40 = zext i16 %39 to i32
  %..176.us = tail call i32 @llvm.umin.i32(i32 %.17683.us, i32 %40)
  %41 = getelementptr inbounds nuw i16, ptr %.07792.us, i64 %indvars.iv
  %42 = load i16, ptr %41, align 2, !tbaa !69
  %43 = zext i16 %42 to i32
  %44 = tail call i32 @llvm.umin.i32(i32 %.17484.us, i32 %43)
  %45 = tail call i32 @llvm.smax.i32(i32 %.17285.us, i32 %40)
  %46 = tail call i32 @llvm.smax.i32(i32 %.186.us, i32 %43)
  %indvars.iv.next = add nuw nsw i64 %indvars.iv, 1
  %exitcond.not = icmp eq i64 %indvars.iv.next, %wide.trip.count
  br i1 %exitcond.not, label %._crit_edge.us, label %37, !llvm.loop !79

._crit_edge.us:                                   ; preds = %37
  %47 = getelementptr inbounds i16, ptr %.07891.us, i64 %21
  %48 = getelementptr inbounds i16, ptr %.07792.us, i64 %25
  %49 = add nsw i32 %.06997.us, 1
  %exitcond110.not = icmp eq i32 %49, %17
  br i1 %exitcond110.not, label %._crit_edge98.loopexit, label %.preheader.us, !llvm.loop !80

._crit_edge98.loopexit:                           ; preds = %._crit_edge.us
  %50 = uitofp nneg i32 %..176.us to float
  %51 = uitofp nneg i32 %44 to float
  %52 = uitofp nneg i32 %45 to float
  %53 = uitofp nneg i32 %46 to float
  br label %._crit_edge98

._crit_edge98:                                    ; preds = %._crit_edge98.loopexit, %4
  %.075.lcssa = phi float [ 0x41E0000000000000, %4 ], [ %50, %._crit_edge98.loopexit ]
  %.073.lcssa = phi float [ 0x41E0000000000000, %4 ], [ %51, %._crit_edge98.loopexit ]
  %.071.lcssa = phi float [ 0xC1E0000000000000, %4 ], [ %52, %._crit_edge98.loopexit ]
  %.070.lcssa = phi float [ 0xC1E0000000000000, %4 ], [ %53, %._crit_edge98.loopexit ]
  %54 = tail call nsz float @llvm.fmuladd.f32(float %8, float %.075.lcssa, float -5.000000e-01)
  %55 = getelementptr inbounds nuw i8, ptr %6, i64 104
  %56 = load ptr, ptr %55, align 8, !tbaa !36
  %57 = sext i32 %2 to i64
  %58 = getelementptr inbounds [4 x float], ptr %56, i64 %57
  store float %54, ptr %58, align 4, !tbaa !41
  %59 = tail call nsz float @llvm.fmuladd.f32(float %8, float %.073.lcssa, float -5.000000e-01)
  %60 = getelementptr inbounds [4 x float], ptr %56, i64 %57, i64 1
  store float %59, ptr %60, align 4, !tbaa !41
  %61 = tail call nsz float @llvm.fmuladd.f32(float %8, float %.071.lcssa, float -5.000000e-01)
  %62 = getelementptr inbounds [4 x float], ptr %56, i64 %57, i64 2
  store float %61, ptr %62, align 4, !tbaa !41
  %63 = tail call nsz float @llvm.fmuladd.f32(float %8, float %.070.lcssa, float -5.000000e-01)
  %64 = getelementptr inbounds [4 x float], ptr %56, i64 %57, i64 3
  store float %63, ptr %64, align 4, !tbaa !41
  ret i32 0
}